target datalayout = "e-m:e-p270:32:32-p271:32:32-p272:64:64-i64:64-i128:128-f80:128-n8:16:32:64-S128"
target triple = "x86_64-pc-linux-gnu"

%struct.ssl_st = type { i32, i16, i16, ptr, ptr, ptr, ptr, ptr, i32, i32, ptr, ptr, i32, i32, ptr, ptr, ptr, ptr, ptr, ptr, ptr, ptr, i32, i32, [32 x i8], ptr, ptr, ptr, ptr, ptr, ptr, ptr, i64, %struct.crypto_ex_data_st, ptr, i32, i32, i32, i32, i16, ptr, i32, i64, ptr, ptr, ptr, ptr, ptr, ptr, i32, i32, ptr, ptr, i8, i8, i32 }
%struct.crypto_ex_data_st = type { ptr }
%struct.ssl_protocol_method_st = type { i8, ptr, ptr, ptr, ptr, ptr, ptr, ptr, ptr, ptr, ptr, ptr, i32, ptr, ptr }

; Function Attrs: nounwind uwtable
define hidden i32 @ssl3_send_server_done(ptr noundef %0) #0 {
  %2 = alloca i32, align 4
  %3 = alloca ptr, align 8
  store ptr %0, ptr %3, align 8, !tbaa !6
  %4 = load ptr, ptr %3, align 8, !tbaa !6
  %5 = getelementptr inbounds nuw %struct.ssl_st, ptr %4, i32 0, i32 9
  %6 = load i32, ptr %5, align 4, !tbaa !48
  %7 = icmp eq i32 %6, 8560
  br i1 %7, label %8, label %21

8:                                                ; preds = %1
  %9 = load ptr, ptr %3, align 8, !tbaa !6
  %10 = getelementptr inbounds nuw %struct.ssl_st, ptr %9, i32 0, i32 3
  %11 = load ptr, ptr %10, align 8, !tbaa !76
  %12 = getelementptr inbounds nuw %struct.ssl_protocol_method_st, ptr %11, i32 0, i32 13
  %13 = load ptr, ptr %12, align 8, !tbaa !138
  %14 = load ptr, ptr %3, align 8, !tbaa !6
  %15 = call i32 %13(ptr noundef %14, i32 noundef 14, i64 noundef 0)
  %16 = icmp ne i32 %15, 0
  br i1 %16, label %18, label %17

17:                                               ; preds = %8
  store i32 -1, ptr %2, align 4
  br label %29

18:                                               ; preds = %8
  %19 = load ptr, ptr %3, align 8, !tbaa !6
  %20 = getelementptr inbounds nuw %struct.ssl_st, ptr %19, i32 0, i32 9
  store i32 8561, ptr %20, align 4, !tbaa !48
  br label %21

21:                                               ; preds = %18, %1
  %22 = load ptr, ptr %3, align 8, !tbaa !6
  %23 = getelementptr inbounds nuw %struct.ssl_st, ptr %22, i32 0, i32 3
  %24 = load ptr, ptr %23, align 8, !tbaa !76
  %25 = getelementptr inbounds nuw %struct.ssl_protocol_method_st, ptr %24, i32 0, i32 14
  %26 = load ptr, ptr %25, align 8, !tbaa !135
  %27 = load ptr, ptr %3, align 8, !tbaa !6
  %28 = call i32 %26(ptr noundef %27)
  store i32 %28, ptr %2, align 4
  br label %29

29:                                               ; preds = %21, %17
  %30 = load i32, ptr %2, align 4
  ret i32 %30
}