; Function Attrs: nounwind uwtable
define hidden i32 @ssl3_send_server_done(ptr noundef %0) local_unnamed_addr #0 {
  %2 = getelementptr inbounds nuw i8, ptr %0, i64 52
  %3 = load i32, ptr %2, align 4, !tbaa !43
  %4 = icmp eq i32 %3, 8560
  br i1 %4, label %5, label %12

5:                                                ; preds = %1
  %6 = getelementptr inbounds nuw i8, ptr %0, i64 8
  %7 = load ptr, ptr %6, align 8, !tbaa !64
  %8 = getelementptr inbounds nuw i8, ptr %7, i64 104
  %9 = load ptr, ptr %8, align 8, !tbaa !71
  %10 = tail call i32 %9(ptr noundef nonnull %0, i32 noundef 14, i64 noundef 0) #10
  %.not = icmp eq i32 %10, 0
  br i1 %.not, label %18, label %11

11:                                               ; preds = %5
  store i32 8561, ptr %2, align 4, !tbaa !43
  br label %12

12:                                               ; preds = %11, %1
  %13 = getelementptr inbounds nuw i8, ptr %0, i64 8
  %14 = load ptr, ptr %13, align 8, !tbaa !64
  %15 = getelementptr inbounds nuw i8, ptr %14, i64 112
  %16 = load ptr, ptr %15, align 8, !tbaa !65
  %17 = tail call i32 %16(ptr noundef nonnull %0) #10
  br label %18

18:                                               ; preds = %5, %12
  %.0 = phi i32 [ %17, %12 ], [ -1, %5 ]
  ret i32 %.0
}